#include <math.h>
#include <stdio.h>
#include <stdlib.h>
#include <string.h>

main()
{
	int a[20000],n,i,j,k=0,b[20000];
	scanf("%d",&n);
	i=n;
	for(i=0;i<n;i++)
	{
		scanf("%d",&a[i]);
		for(j=0;j<i;j++)
		{
			if(a[i]==a[j])
				break;
		}
		if(j==i)
		{
			b[k]=a[i];
			k++;
		}
	}
	for(i=0;i<k;i++)
	{
		printf("%d",b[i]);
		if(i-k+1)
			printf(" ");
	}
}